; Function Attrs: null_pointer_is_valid sspstrong uwtable
define internal void @spdu_signal_list_aggregate_sum_tostr_cb(ptr noundef readonly captures(none) %0, ptr noundef writeonly captures(none) initializes((0, 8)) %1, ptr noundef writeonly captures(none) initializes((0, 4)) %2, ptr readnone captures(none) %3, ptr readnone captures(none) %4) #0 {
  %6 = getelementptr inbounds nuw i8, ptr %0, i64 81
  %7 = load i8, ptr %6, align 1, !range !6, !noundef !7
  %8 = trunc nuw i8 %7 to i1
  %9 = select i1 %8, ptr @.str.234, ptr @.str.157
  %10 = tail call noalias ptr (ptr, ptr, ...) @wmem_strdup_printf(ptr noundef null, ptr noundef nonnull @.str.233, ptr noundef nonnull %9)
  store ptr %10, ptr %1, align 8
  %11 = tail call i64 @strlen(ptr noundef %10) #15
  %12 = trunc i64 %11 to i32
  store i32 %12, ptr %2, align 4
  ret void
}